target datalayout = "e-m:e-p270:32:32-p271:32:32-p272:64:64-i64:64-i128:128-f80:128-n8:16:32:64-S128"
target triple = "x86_64-pc-linux-gnu"

%struct.H5HF_free_section_t = type { %struct.H5FS_section_info_t, %union.anon.0 }
%struct.H5FS_section_info_t = type { i64, i64, i32, i32 }
%union.anon.0 = type { %struct.anon.2 }
%struct.anon.2 = type { %union.anon.3, i32, i32, i32, ptr, i32, i64, i32, i32, i32, ptr, i32, ptr }
%union.anon.3 = type { ptr }
%struct.H5HF_debug_iter_ud2_t = type { ptr, ptr, i32, i32 }

@H5HF_init_g = external global i8, align 1
@H5_libterm_g = external global i8, align 1
@.str = private unnamed_addr constant [101 x i8] c"generated/home/dtcxzyw/WorkSpace/Projects/compilers/llvm-opt-benchmark/bench/hdf5/hdf5/src/H5HFdbg.c\00", align 1
@H5E_HEAP_g = external global i64, align 8
@.str.6 = private unnamed_addr constant [1 x i8] zeroinitializer, align 1
@.str.9 = private unnamed_addr constant [12 x i8] c"%*s%-*s %s\0A\00", align 1
@.str.24 = private unnamed_addr constant [13 x i8] c"%*s%-*s %lu\0A\00", align 1
@H5E_BADITER_g = external global i64, align 8
@.str.95 = private unnamed_addr constant [14 x i8] c"Section type:\00", align 1
@.str.96 = private unnamed_addr constant [7 x i8] c"single\00", align 1
@.str.97 = private unnamed_addr constant [10 x i8] c"first row\00", align 1
@.str.98 = private unnamed_addr constant [11 x i8] c"normal row\00", align 1
@.str.99 = private unnamed_addr constant [8 x i8] c"unknown\00", align 1
@.str.100 = private unnamed_addr constant [17 x i8] c"Section address:\00", align 1
@.str.101 = private unnamed_addr constant [14 x i8] c"Section size:\00", align 1
@__func__.H5HF_sects_debug_cb = private unnamed_addr constant [20 x i8] c"H5HF_sects_debug_cb\00", align 1
@.str.102 = private unnamed_addr constant [36 x i8] c"can't dump section's debugging info\00", align 1

; Function Attrs: nounwind uwtable
define internal i32 @H5HF_sects_debug_cb(ptr noundef %0, ptr noundef %1) #0 {
  %3 = alloca ptr, align 8
  %4 = alloca ptr, align 8
  %5 = alloca ptr, align 8
  %6 = alloca ptr, align 8
  %7 = alloca i32, align 4
  %8 = alloca i8, align 1
  store ptr %0, ptr %3, align 8, !tbaa !128
  store ptr %1, ptr %4, align 8, !tbaa !8
  call void @llvm.lifetime.start.p0(i64 8, ptr %5) #8
  %9 = load ptr, ptr %3, align 8, !tbaa !128
  store ptr %9, ptr %5, align 8, !tbaa !130
  call void @llvm.lifetime.start.p0(i64 8, ptr %6) #8
  %10 = load ptr, ptr %4, align 8, !tbaa !8
  store ptr %10, ptr %6, align 8, !tbaa !8
  call void @llvm.lifetime.start.p0(i64 4, ptr %7) #8
  store i32 0, ptr %7, align 4, !tbaa !11
  call void @llvm.lifetime.start.p0(i64 1, ptr %8) #8
  store i8 0, ptr %8, align 1, !tbaa !15
  %11 = load i8, ptr @H5HF_init_g, align 1, !tbaa !15, !range !17, !noundef !18
  %12 = trunc i8 %11 to i1
  br i1 %12, label %17, label %13

13:                                               ; preds = %2
  %14 = load i8, ptr @H5_libterm_g, align 1, !tbaa !15, !range !17, !noundef !18
  %15 = trunc i8 %14 to i1
  %16 = xor i1 %15, true
  br label %17

17:                                               ; preds = %13, %2
  %18 = phi i1 [ true, %2 ], [ %16, %13 ]
  %19 = xor i1 %18, true
  %20 = xor i1 %19, true
  %21 = zext i1 %20 to i32
  %22 = sext i32 %21 to i64
  %23 = call i64 @llvm.expect.i64(i64 %22, i64 1)
  %24 = icmp ne i64 %23, 0
  br i1 %24, label %25, label %135

25:                                               ; preds = %17
  %26 = load ptr, ptr %6, align 8, !tbaa !8
  %27 = getelementptr inbounds nuw %struct.H5HF_debug_iter_ud2_t, ptr %26, i32 0, i32 1
  %28 = load ptr, ptr %27, align 8, !tbaa !139
  %29 = load ptr, ptr %6, align 8, !tbaa !8
  %30 = getelementptr inbounds nuw %struct.H5HF_debug_iter_ud2_t, ptr %29, i32 0, i32 2
  %31 = load i32, ptr %30, align 8, !tbaa !140
  %32 = load ptr, ptr %6, align 8, !tbaa !8
  %33 = getelementptr inbounds nuw %struct.H5HF_debug_iter_ud2_t, ptr %32, i32 0, i32 3
  %34 = load i32, ptr %33, align 4, !tbaa !141
  %35 = load ptr, ptr %5, align 8, !tbaa !130
  %36 = getelementptr inbounds nuw %struct.H5HF_free_section_t, ptr %35, i32 0, i32 0
  %37 = getelementptr inbounds nuw %struct.H5FS_section_info_t, ptr %36, i32 0, i32 2
  %38 = load i32, ptr %37, align 8, !tbaa !142
  %39 = icmp eq i32 %38, 0
  br i1 %39, label %40, label %41

40:                                               ; preds = %25
  br label %57

41:                                               ; preds = %25
  %42 = load ptr, ptr %5, align 8, !tbaa !130
  %43 = getelementptr inbounds nuw %struct.H5HF_free_section_t, ptr %42, i32 0, i32 0
  %44 = getelementptr inbounds nuw %struct.H5FS_section_info_t, ptr %43, i32 0, i32 2
  %45 = load i32, ptr %44, align 8, !tbaa !142
  %46 = icmp eq i32 %45, 1
  br i1 %46, label %47, label %48

47:                                               ; preds = %41
  br label %55

48:                                               ; preds = %41
  %49 = load ptr, ptr %5, align 8, !tbaa !130
  %50 = getelementptr inbounds nuw %struct.H5HF_free_section_t, ptr %49, i32 0, i32 0
  %51 = getelementptr inbounds nuw %struct.H5FS_section_info_t, ptr %50, i32 0, i32 2
  %52 = load i32, ptr %51, align 8, !tbaa !142
  %53 = icmp eq i32 %52, 2
  %54 = select i1 %53, ptr @.str.98, ptr @.str.99
  br label %55

55:                                               ; preds = %48, %47
  %56 = phi ptr [ @.str.97, %47 ], [ %54, %48 ]
  br label %57

57:                                               ; preds = %55, %40
  %58 = phi ptr [ @.str.96, %40 ], [ %56, %55 ]
  %59 = call i32 (ptr, ptr, ...) @fprintf(ptr noundef %28, ptr noundef @.str.9, i32 noundef %31, ptr noundef @.str.6, i32 noundef %34, ptr noundef @.str.95, ptr noundef %58) #8
  %60 = load ptr, ptr %6, align 8, !tbaa !8
  %61 = getelementptr inbounds nuw %struct.H5HF_debug_iter_ud2_t, ptr %60, i32 0, i32 1
  %62 = load ptr, ptr %61, align 8, !tbaa !139
  %63 = load ptr, ptr %6, align 8, !tbaa !8
  %64 = getelementptr inbounds nuw %struct.H5HF_debug_iter_ud2_t, ptr %63, i32 0, i32 2
  %65 = load i32, ptr %64, align 8, !tbaa !140
  %66 = load ptr, ptr %6, align 8, !tbaa !8
  %67 = getelementptr inbounds nuw %struct.H5HF_debug_iter_ud2_t, ptr %66, i32 0, i32 3
  %68 = load i32, ptr %67, align 4, !tbaa !141
  %69 = load ptr, ptr %5, align 8, !tbaa !130
  %70 = getelementptr inbounds nuw %struct.H5HF_free_section_t, ptr %69, i32 0, i32 0
  %71 = getelementptr inbounds nuw %struct.H5FS_section_info_t, ptr %70, i32 0, i32 0
  %72 = load i64, ptr %71, align 8, !tbaa !132
  %73 = call i32 (ptr, ptr, ...) @fprintf(ptr noundef %62, ptr noundef @.str.24, i32 noundef %65, ptr noundef @.str.6, i32 noundef %68, ptr noundef @.str.100, i64 noundef %72) #8
  %74 = load ptr, ptr %6, align 8, !tbaa !8
  %75 = getelementptr inbounds nuw %struct.H5HF_debug_iter_ud2_t, ptr %74, i32 0, i32 1
  %76 = load ptr, ptr %75, align 8, !tbaa !139
  %77 = load ptr, ptr %6, align 8, !tbaa !8
  %78 = getelementptr inbounds nuw %struct.H5HF_debug_iter_ud2_t, ptr %77, i32 0, i32 2
  %79 = load i32, ptr %78, align 8, !tbaa !140
  %80 = load ptr, ptr %6, align 8, !tbaa !8
  %81 = getelementptr inbounds nuw %struct.H5HF_debug_iter_ud2_t, ptr %80, i32 0, i32 3
  %82 = load i32, ptr %81, align 4, !tbaa !141
  %83 = load ptr, ptr %5, align 8, !tbaa !130
  %84 = getelementptr inbounds nuw %struct.H5HF_free_section_t, ptr %83, i32 0, i32 0
  %85 = getelementptr inbounds nuw %struct.H5FS_section_info_t, ptr %84, i32 0, i32 1
  %86 = load i64, ptr %85, align 8, !tbaa !135
  %87 = call i32 (ptr, ptr, ...) @fprintf(ptr noundef %76, ptr noundef @.str.24, i32 noundef %79, ptr noundef @.str.6, i32 noundef %82, ptr noundef @.str.101, i64 noundef %86) #8
  %88 = load ptr, ptr %6, align 8, !tbaa !8
  %89 = getelementptr inbounds nuw %struct.H5HF_debug_iter_ud2_t, ptr %88, i32 0, i32 0
  %90 = load ptr, ptr %89, align 8, !tbaa !137
  %91 = load ptr, ptr %3, align 8, !tbaa !128
  %92 = load ptr, ptr %6, align 8, !tbaa !8
  %93 = getelementptr inbounds nuw %struct.H5HF_debug_iter_ud2_t, ptr %92, i32 0, i32 1
  %94 = load ptr, ptr %93, align 8, !tbaa !139
  %95 = load ptr, ptr %6, align 8, !tbaa !8
  %96 = getelementptr inbounds nuw %struct.H5HF_debug_iter_ud2_t, ptr %95, i32 0, i32 2
  %97 = load i32, ptr %96, align 8, !tbaa !140
  %98 = add nsw i32 %97, 3
  %99 = load ptr, ptr %6, align 8, !tbaa !8
  %100 = getelementptr inbounds nuw %struct.H5HF_debug_iter_ud2_t, ptr %99, i32 0, i32 3
  %101 = load i32, ptr %100, align 4, !tbaa !141
  %102 = sub nsw i32 %101, 3
  %103 = icmp sgt i32 0, %102
  br i1 %103, label %104, label %105

104:                                              ; preds = %57
  br label %110

105:                                              ; preds = %57
  %106 = load ptr, ptr %6, align 8, !tbaa !8
  %107 = getelementptr inbounds nuw %struct.H5HF_debug_iter_ud2_t, ptr %106, i32 0, i32 3
  %108 = load i32, ptr %107, align 4, !tbaa !141
  %109 = sub nsw i32 %108, 3
  br label %110

110:                                              ; preds = %105, %104
  %111 = phi i32 [ 0, %104 ], [ %109, %105 ]
  %112 = call i32 @H5FS_sect_debug(ptr noundef %90, ptr noundef %91, ptr noundef %94, i32 noundef %98, i32 noundef %111)
  %113 = icmp slt i32 %112, 0
  br i1 %113, label %114, label %133

114:                                              ; preds = %110
  br label %115

115:                                              ; preds = %114
  br label %116

116:                                              ; preds = %115
  br label %117

117:                                              ; preds = %116
  %118 = load i64, ptr @H5E_HEAP_g, align 8, !tbaa !20
  %119 = load i64, ptr @H5E_BADITER_g, align 8, !tbaa !20
  %120 = call i32 (ptr, ptr, i32, i64, i64, ptr, ...) @H5E_printf_stack(ptr noundef @.str, ptr noundef @__func__.H5HF_sects_debug_cb, i32 noundef 742, i64 noundef %118, i64 noundef %119, ptr noundef @.str.102)
  br label %121

121:                                              ; preds = %117
  br label %122

122:                                              ; preds = %121
  store i8 1, ptr %8, align 1, !tbaa !15
  %123 = load i8, ptr %8, align 1, !tbaa !15, !range !17, !noundef !18
  %124 = trunc i8 %123 to i1
  %125 = zext i1 %124 to i8
  store i8 %125, ptr %8, align 1, !tbaa !15
  br label %126

126:                                              ; preds = %122
  br label %127

127:                                              ; preds = %126
  br label %128

128:                                              ; preds = %127
  store i32 -1, ptr %7, align 4, !tbaa !11
  br label %134

129:                                              ; No predecessors!
  br label %130

130:                                              ; preds = %129
  br label %131

131:                                              ; preds = %130
  br label %132

132:                                              ; preds = %131
  br label %133

133:                                              ; preds = %132, %110
  br label %134

134:                                              ; preds = %133, %128
  br label %135

135:                                              ; preds = %134, %17
  %136 = load i32, ptr %7, align 4, !tbaa !11
  call void @llvm.lifetime.end.p0(i64 1, ptr %8) #8
  call void @llvm.lifetime.end.p0(i64 4, ptr %7) #8
  call void @llvm.lifetime.end.p0(i64 8, ptr %6) #8
  call void @llvm.lifetime.end.p0(i64 8, ptr %5) #8
  ret i32 %136
}